; Function Attrs: inlinehint mustprogress uwtable
define internal fastcc void @_ZN2lpL15fractional_partERK8rational(ptr dead_on_unwind noalias nonnull writable align 8 %0, ptr noundef nonnull align 8 dereferenceable(32) %1) unnamed_addr #5 personality ptr @__gxx_personality_v0 {
  %3 = alloca %class.rational, align 8
  call void @llvm.lifetime.start.p0(i64 32, ptr nonnull %3) #25
  tail call void @llvm.experimental.noalias.scope.decl(metadata !402)
  store i32 0, ptr %3, align 8, !tbaa !6, !alias.scope !402
  %4 = getelementptr inbounds nuw i8, ptr %3, i64 4
  store i8 0, ptr %4, align 4, !alias.scope !402
  %5 = getelementptr inbounds nuw i8, ptr %3, i64 8
  store ptr null, ptr %5, align 8, !tbaa !13, !alias.scope !402
  %6 = getelementptr inbounds nuw i8, ptr %3, i64 16
  store i32 1, ptr %6, align 8, !tbaa !6, !alias.scope !402
  %7 = getelementptr inbounds nuw i8, ptr %3, i64 20
  store i8 0, ptr %7, align 4, !alias.scope !402
  %8 = getelementptr inbounds nuw i8, ptr %3, i64 24
  store ptr null, ptr %8, align 8, !tbaa !13, !alias.scope !402
  %9 = load ptr, ptr @_ZN8rational13g_mpq_managerE, align 8, !tbaa !14, !noalias !402
  invoke void @_ZN11mpq_managerILb1EE5floorERK3mpqR3mpz(ptr noundef nonnull align 8 dereferenceable(728) %9, ptr noundef nonnull align 8 dereferenceable(32) %1, ptr noundef nonnull align 8 dereferenceable(32) %3)
          to label %.noexc.i unwind label %10

.noexc.i:                                         ; preds = %2
  invoke void @_ZN11mpz_managerILb1EE3delEPS0_R3mpz(ptr noundef nonnull align 8 dereferenceable(728) %9, ptr noundef nonnull align 8 dereferenceable(16) %6)
          to label %_Z5floorRK8rational.exit unwind label %10

common.resume:                                    ; preds = %19, %10
  %common.resume.op = phi { ptr, i32 } [ %11, %10 ], [ %20, %19 ]
  resume { ptr, i32 } %common.resume.op

10:                                               ; preds = %.noexc.i, %2
  %11 = landingpad { ptr, i32 }
          cleanup
  call void @_ZN8rationalD2Ev(ptr noundef nonnull align 8 dereferenceable(32) %3) #25
  br label %common.resume

_Z5floorRK8rational.exit:                         ; preds = %.noexc.i
  store i32 1, ptr %6, align 8, !tbaa !6, !alias.scope !402
  %12 = load i8, ptr %7, align 4, !alias.scope !402
  %13 = and i8 %12, -2
  store i8 %13, ptr %7, align 4, !alias.scope !402
  invoke void @_ZmiRK8rationalS1_(ptr dead_on_unwind nonnull writable sret(%class.rational) align 8 %0, ptr noundef nonnull align 8 dereferenceable(32) %1, ptr noundef nonnull align 8 dereferenceable(32) %3)
          to label %14 unwind label %19

14:                                               ; preds = %_Z5floorRK8rational.exit
  %15 = load ptr, ptr @_ZN8rational13g_mpq_managerE, align 8, !tbaa !14
  invoke void @_ZN11mpz_managerILb1EE3delEPS0_R3mpz(ptr noundef %15, ptr noundef nonnull align 8 dereferenceable(32) %3)
          to label %.noexc.i3 unwind label %16

.noexc.i3:                                        ; preds = %14
  invoke void @_ZN11mpz_managerILb1EE3delEPS0_R3mpz(ptr noundef %15, ptr noundef nonnull align 8 dereferenceable(16) %6)
          to label %_ZN8rationalD2Ev.exit unwind label %16

16:                                               ; preds = %.noexc.i3, %14
  %17 = landingpad { ptr, i32 }
          catch ptr null
  %18 = extractvalue { ptr, i32 } %17, 0
  call void @__clang_call_terminate(ptr %18) #26
  unreachable

_ZN8rationalD2Ev.exit:                            ; preds = %.noexc.i3
  call void @llvm.lifetime.end.p0(i64 32, ptr nonnull %3) #25
  ret void

19:                                               ; preds = %_Z5floorRK8rational.exit
  %20 = landingpad { ptr, i32 }
          cleanup
  call void @_ZN8rationalD2Ev(ptr noundef nonnull align 8 dereferenceable(32) %3) #25
  call void @llvm.lifetime.end.p0(i64 32, ptr nonnull %3) #25
  br label %common.resume
}